target datalayout = "e-m:e-p270:32:32-p271:32:32-p272:64:64-i64:64-i128:128-f80:128-n8:16:32:64-S128"
target triple = "x86_64-pc-linux-gnu"

%"struct.boost::wave::cpplexer::re2clex::tag_aq_queuetype" = type { i64, i64, i64, i64, ptr }

; Function Attrs: mustprogress nounwind uwtable
define noundef ptr @_ZN5boost4wave8cpplexer7re2clex9aq_createEv() #0 {
  %1 = alloca ptr, align 8
  %2 = alloca ptr, align 8
  %3 = alloca i32, align 4
  call void @llvm.lifetime.start.p0(i64 8, ptr %2) #7
  %4 = call noalias ptr @malloc(i64 noundef 40) #9
  store ptr %4, ptr %2, align 8, !tbaa !3
  %5 = load ptr, ptr %2, align 8, !tbaa !3
  %6 = icmp ne ptr %5, null
  br i1 %6, label %8, label %7

7:                                                ; preds = %0
  store ptr null, ptr %1, align 8
  store i32 1, ptr %3, align 4
  br label %36

8:                                                ; preds = %0
  %9 = load ptr, ptr %2, align 8, !tbaa !3
  %10 = getelementptr inbounds nuw %"struct.boost::wave::cpplexer::re2clex::tag_aq_queuetype", ptr %9, i32 0, i32 3
  store i64 8, ptr %10, align 8, !tbaa !7
  %11 = load ptr, ptr %2, align 8, !tbaa !3
  %12 = getelementptr inbounds nuw %"struct.boost::wave::cpplexer::re2clex::tag_aq_queuetype", ptr %11, i32 0, i32 3
  %13 = load i64, ptr %12, align 8, !tbaa !7
  %14 = mul i64 8, %13
  %15 = call noalias ptr @malloc(i64 noundef %14) #9
  %16 = load ptr, ptr %2, align 8, !tbaa !3
  %17 = getelementptr inbounds nuw %"struct.boost::wave::cpplexer::re2clex::tag_aq_queuetype", ptr %16, i32 0, i32 4
  store ptr %15, ptr %17, align 8, !tbaa !11
  %18 = load ptr, ptr %2, align 8, !tbaa !3
  %19 = getelementptr inbounds nuw %"struct.boost::wave::cpplexer::re2clex::tag_aq_queuetype", ptr %18, i32 0, i32 4
  %20 = load ptr, ptr %19, align 8, !tbaa !11
  %21 = icmp ne ptr %20, null
  br i1 %21, label %24, label %22

22:                                               ; preds = %8
  %23 = load ptr, ptr %2, align 8, !tbaa !3
  call void @free(ptr noundef %23) #7
  store ptr null, ptr %1, align 8
  store i32 1, ptr %3, align 4
  br label %36

24:                                               ; preds = %8
  %25 = load ptr, ptr %2, align 8, !tbaa !3
  %26 = getelementptr inbounds nuw %"struct.boost::wave::cpplexer::re2clex::tag_aq_queuetype", ptr %25, i32 0, i32 0
  store i64 0, ptr %26, align 8, !tbaa !13
  %27 = load ptr, ptr %2, align 8, !tbaa !3
  %28 = getelementptr inbounds nuw %"struct.boost::wave::cpplexer::re2clex::tag_aq_queuetype", ptr %27, i32 0, i32 3
  %29 = load i64, ptr %28, align 8, !tbaa !7
  %30 = sub i64 %29, 1
  %31 = load ptr, ptr %2, align 8, !tbaa !3
  %32 = getelementptr inbounds nuw %"struct.boost::wave::cpplexer::re2clex::tag_aq_queuetype", ptr %31, i32 0, i32 1
  store i64 %30, ptr %32, align 8, !tbaa !12
  %33 = load ptr, ptr %2, align 8, !tbaa !3
  %34 = getelementptr inbounds nuw %"struct.boost::wave::cpplexer::re2clex::tag_aq_queuetype", ptr %33, i32 0, i32 2
  store i64 0, ptr %34, align 8, !tbaa !14
  %35 = load ptr, ptr %2, align 8, !tbaa !3
  store ptr %35, ptr %1, align 8
  store i32 1, ptr %3, align 4
  br label %36

36:                                               ; preds = %24, %22, %7
  call void @llvm.lifetime.end.p0(i64 8, ptr %2) #7
  %37 = load ptr, ptr %1, align 8
  ret ptr %37
}