; Function Attrs: mustprogress nounwind willreturn memory(readwrite, argmem: none) uwtable
define noalias noundef ptr @_ZN5boost4wave8cpplexer7re2clex9aq_createEv() local_unnamed_addr #5 {
  %1 = tail call noalias dereferenceable_or_null(40) ptr @malloc(i64 noundef 40) #9
  %.not = icmp eq ptr %1, null
  br i1 %.not, label %10, label %2

2:                                                ; preds = %0
  %3 = getelementptr inbounds nuw i8, ptr %1, i64 24
  store i64 8, ptr %3, align 8, !tbaa !3
  %4 = tail call noalias dereferenceable_or_null(64) ptr @malloc(i64 noundef 64) #9
  %5 = getelementptr inbounds nuw i8, ptr %1, i64 32
  store ptr %4, ptr %5, align 8, !tbaa !9
  %.not13 = icmp eq ptr %4, null
  br i1 %.not13, label %6, label %7

6:                                                ; preds = %2
  tail call void @free(ptr noundef nonnull %1) #10
  br label %10

7:                                                ; preds = %2
  store i64 0, ptr %1, align 8, !tbaa !11
  %8 = getelementptr inbounds nuw i8, ptr %1, i64 8
  store i64 7, ptr %8, align 8, !tbaa !10
  %9 = getelementptr inbounds nuw i8, ptr %1, i64 16
  store i64 0, ptr %9, align 8, !tbaa !12
  br label %10

10:                                               ; preds = %0, %7, %6
  %.0 = phi ptr [ %1, %7 ], [ null, %6 ], [ null, %0 ]
  ret ptr %.0
}